; Function Attrs: mustprogress nounwind uwtable
define dso_local void @_ZN4node4quic9QuicError14ForApplicationEmSt17basic_string_viewIcSt11char_traitsIcEE(ptr noalias sret(%"class.node::quic::QuicError") align 8 %agg.result, i64 noundef %code, i64 %reason.coerce0, ptr %reason.coerce1) local_unnamed_addr #3 align 2 {
entry:
  %agg.tmp.i.i = alloca %"struct.std::__cxx11::basic_string<char>::__sv_wrapper", align 8
  %ref.tmp.i = alloca %"class.std::allocator.95", align 1
  call void @llvm.lifetime.start.p0(i64 1, ptr nonnull %ref.tmp.i)
  store ptr getelementptr inbounds ({ [10 x ptr] }, ptr @_ZTVN4node4quic9QuicErrorE, i64 0, i32 0, i64 2), ptr %agg.result, align 8
  %reason_.i = getelementptr inbounds i8, ptr %agg.result, i64 8
  call void @_ZNSaIcEC1Ev(ptr noundef nonnull align 1 dereferenceable(1) %ref.tmp.i) #16
  call void @llvm.lifetime.start.p0(i64 16, ptr nonnull %agg.tmp.i.i)
  %call.i.i = call { i64, ptr } @_ZNSt7__cxx1112basic_stringIcSt11char_traitsIcESaIcEE17_S_to_string_viewESt17basic_string_viewIcS2_E(i64 %reason.coerce0, ptr %reason.coerce1) #16
  %0 = extractvalue { i64, ptr } %call.i.i, 0
  %1 = extractvalue { i64, ptr } %call.i.i, 1
  call void @_ZNSt7__cxx1112basic_stringIcSt11char_traitsIcESaIcEE12__sv_wrapperC1ESt17basic_string_viewIcS2_E(ptr noundef nonnull align 8 dereferenceable(16) %agg.tmp.i.i, i64 %0, ptr %1) #16
  %2 = load i64, ptr %agg.tmp.i.i, align 8
  %3 = getelementptr inbounds i8, ptr %agg.tmp.i.i, i64 8
  %4 = load ptr, ptr %3, align 8
  call void @_ZNSt7__cxx1112basic_stringIcSt11char_traitsIcESaIcEEC2ENS4_12__sv_wrapperERKS3_(ptr noundef nonnull align 8 dereferenceable(32) %reason_.i, i64 %2, ptr %4, ptr noundef nonnull align 1 dereferenceable(1) %ref.tmp.i) #16
  call void @llvm.lifetime.end.p0(i64 16, ptr nonnull %agg.tmp.i.i)
  call void @_ZNSaIcED1Ev(ptr noundef nonnull align 1 dereferenceable(1) %ref.tmp.i) #16
  %error_.i = getelementptr inbounds i8, ptr %agg.result, i64 40
  call void @llvm.memset.p0.i64(ptr noundef nonnull align 8 dereferenceable(40) %error_.i, i8 0, i64 40, i1 false)
  %ptr_.i = getelementptr inbounds i8, ptr %agg.result, i64 80
  store ptr %error_.i, ptr %ptr_.i, align 8
  call void @llvm.lifetime.end.p0(i64 1, ptr nonnull %ref.tmp.i)
  %call.i = call noundef ptr @_ZNKSt7__cxx1112basic_stringIcSt11char_traitsIcESaIcEE5c_strEv(ptr noundef nonnull align 8 dereferenceable(32) %reason_.i) #16
  call void @ngtcp2_connection_close_error_set_application_error(ptr noundef nonnull %error_.i, i64 noundef %code, ptr noundef %call.i, i64 noundef %reason.coerce0) #16
  ret void
}